target datalayout = "e-m:e-p270:32:32-p271:32:32-p272:64:64-i64:64-i128:128-f80:128-n8:16:32:64-S128"
target triple = "x86_64-pc-linux-gnu"

@.str.18 = private unnamed_addr constant [2 x i8] c"/\00", align 1

; Function Attrs: nounwind uwtable
define dso_local void @add_prefix(ptr noundef %0, ptr noundef %1, ptr noundef %2) #0 {
  %4 = alloca ptr, align 8
  %5 = alloca ptr, align 8
  %6 = alloca ptr, align 8
  %7 = alloca i64, align 8
  store ptr %0, ptr %4, align 8
  store ptr %1, ptr %5, align 8
  store ptr %2, ptr %6, align 8
  %8 = load ptr, ptr %4, align 8
  %9 = load ptr, ptr %8, align 8
  %10 = call i64 @strlen(ptr noundef %9) #12
  %11 = load ptr, ptr %6, align 8
  %12 = call i64 @strlen(ptr noundef %11) #12
  %13 = add i64 %10, %12
  %14 = add i64 %13, 2
  store i64 %14, ptr %7, align 8
  %15 = load ptr, ptr %5, align 8
  %16 = load i64, ptr %15, align 8
  %17 = load i64, ptr %7, align 8
  %18 = icmp ule i64 %16, %17
  br i1 %18, label %19, label %29

19:                                               ; preds = %3
  %20 = load i64, ptr %7, align 8
  %21 = add i64 %20, 1
  %22 = load ptr, ptr %5, align 8
  store i64 %21, ptr %22, align 8
  %23 = load ptr, ptr %4, align 8
  %24 = load ptr, ptr %23, align 8
  %25 = load ptr, ptr %5, align 8
  %26 = load i64, ptr %25, align 8
  %27 = call ptr @realloc(ptr noundef %24, i64 noundef %26) #10
  %28 = load ptr, ptr %4, align 8
  store ptr %27, ptr %28, align 8
  br label %29

29:                                               ; preds = %19, %3
  %30 = load ptr, ptr %4, align 8
  %31 = load ptr, ptr %30, align 8
  %32 = call ptr @strcat(ptr noundef %31, ptr noundef @.str.18) #11
  %33 = load ptr, ptr %6, align 8
  %34 = call ptr @strcat(ptr noundef %32, ptr noundef %33) #11
  ret void
}