; Function Attrs: mustprogress nounwind willreturn uwtable
define dso_local void @add_prefix(ptr nocapture noundef %0, ptr nocapture noundef %1, ptr nocapture noundef readonly %2) local_unnamed_addr #10 {
  %4 = load ptr, ptr %0, align 8
  %5 = tail call i64 @strlen(ptr noundef nonnull dereferenceable(1) %4) #24
  %6 = tail call i64 @strlen(ptr noundef nonnull dereferenceable(1) %2) #24
  %7 = add i64 %6, %5
  %8 = add i64 %7, 2
  %9 = load i64, ptr %1, align 8
  %.not = icmp ugt i64 %9, %8
  br i1 %.not, label %14, label %10

10:                                               ; preds = %3
  %11 = add i64 %7, 3
  store i64 %11, ptr %1, align 8
  %12 = load ptr, ptr %0, align 8
  %13 = tail call ptr @realloc(ptr noundef %12, i64 noundef %11) #21
  store ptr %13, ptr %0, align 8
  br label %14

14:                                               ; preds = %10, %3
  %15 = phi ptr [ %13, %10 ], [ %4, %3 ]
  %strlen = tail call i64 @strlen(ptr nonnull dereferenceable(1) %15)
  %endptr = getelementptr inbounds i8, ptr %15, i64 %strlen
  store i16 47, ptr %endptr, align 1
  %16 = tail call ptr @strcat(ptr noundef nonnull dereferenceable(1) %15, ptr noundef nonnull dereferenceable(1) %2) #22
  ret void
}